(dp1
S'hydroduino_driver'
p2
ccopy_reg
_reconstructor
p3
(ctwisted.plugin
CachedDropin
p4
c__builtin__
object
p5
NtRp6
(dp7
S'moduleName'
p8
S'hydroduino.hydroduino_driver'
p9
sS'description'
p10
NsS'plugins'
p11
(lp12
g3
(ctwisted.plugin
CachedPlugin
p13
g5
NtRp14
(dp15
S'provided'
p16
(lp17
ctwisted.plugin
IPlugin
p18
acpollapli.ipollapli
IDriverHardwareHandler
p19
asS'dropin'
p20
g6
sS'name'
p21
S'SerialHardwareHandler'
p22
sg10
Nsbag3
(g13
g5
NtRp23
(dp24
g16
(lp25
g18
acpollapli.ipollapli
IDriver
p26
asg20
g6
sg21
S'HydroduinoDriver'
p27
sg10
S'Class defining the components of the driver for a basic arduino,using attached firmware '
p28
sbag3
(g13
g5
NtRp29
(dp30
g16
(lp31
g18
actwisted.internet.interfaces
IProtocol
p32
asg20
g6
sg21
S'BaseTextSerialProtocol'
p33
sg10
Nsbasbs.