(dp1
S'gstreamer_webcam_driver'
p2
ccopy_reg
_reconstructor
p3
(ctwisted.plugin
CachedDropin
p4
c__builtin__
object
p5
NtRp6
(dp7
S'moduleName'
p8
S'gstreamer_webcam.gstreamer_webcam_driver'
p9
sS'description'
p10
NsS'plugins'
p11
(lp12
g3
(ctwisted.plugin
CachedPlugin
p13
g5
NtRp14
(dp15
S'provided'
p16
(lp17
ctwisted.plugin
IPlugin
p18
acdoboz_web.idoboz_web
IDriver
p19
asS'dropin'
p20
g6
sS'name'
p21
S'GstreamerWebcamDriver'
p22
sg10
S'Class defining the components of the driver for a basic arduino,using attached firmware '
p23
sbag3
(g13
g5
NtRp24
(dp25
g16
(lp26
g18
acdoboz_web.idoboz_web
IDriverHardwareHandler
p27
asg20
g6
sg21
S'GstreamerWebcamHandler'
p28
sg10
NsbasbsS'virtual_device_driver'
p29
g3
(g4
g5
NtRp30
(dp31
S'moduleName'
p32
S'gstreamer_webcam.virtual_device_driver'
p33
sS'description'
p34
NsS'plugins'
p35
(lp36
g3
(g13
g5
NtRp37
(dp38
S'provided'
p39
(lp40
g18
ag27
asS'dropin'
p41
g30
sS'name'
p42
S'SerialHardwareHandler'
p43
sg34
Nsbag3
(g13
g5
NtRp44
(dp45
g39
(lp46
g18
ag27
asg41
g30
sg42
S'VirtualDeviceHardwareHandler'
p47
sg34
Nsbag3
(g13
g5
NtRp48
(dp49
g39
(lp50
g18
ag19
asg41
g30
sg42
S'VirtualDeviceDriver'
p51
sg34
S'Class defining the components of the driver for a basic arduino,using attached firmware '
p52
sbasbs.