(dp1
S'gstreamer_webcam_driver'
p2
ccopy_reg
_reconstructor
p3
(ctwisted.plugin
CachedDropin
p4
c__builtin__
object
p5
NtRp6
(dp7
S'moduleName'
p8
S'gstreamer_webcam.gstreamer_webcam_driver'
p9
sS'description'
p10
NsS'plugins'
p11
(lp12
g3
(ctwisted.plugin
CachedPlugin
p13
g5
NtRp14
(dp15
S'provided'
p16
(lp17
ctwisted.plugin
IPlugin
p18
acdoboz_web.idoboz_web
IDriver
p19
asS'dropin'
p20
g6
sS'name'
p21
S'GstreamerWebcamDriver'
p22
sg10
S'Class defining the components of the driver for a basic arduino,using attached firmware '
p23
sbag3
(g13
g5
NtRp24
(dp25
g16
(lp26
g18
acdoboz_web.idoboz_web
IDriverHardwareHandler
p27
asg20
g6
sg21
S'GstreamerWebcamHandler'
p28
sg10
Nsbasbs.