(dp1
S'test_arduino_driver'
p2
ccopy_reg
_reconstructor
p3
(ctwisted.plugin
CachedDropin
p4
c__builtin__
object
p5
NtRp6
(dp7
S'moduleName'
p8
S'arduinoExample.test_arduino_driver'
p9
sS'description'
p10
NsS'plugins'
p11
(lp12
g3
(ctwisted.plugin
CachedPlugin
p13
g5
NtRp14
(dp15
S'provided'
p16
(lp17
ctwisted.plugin
IPlugin
p18
acdoboz_web.idoboz_web
IDriverHardwareHandler
p19
asS'dropin'
p20
g6
sS'name'
p21
S'ArduinoExampleHardwareHandler'
p22
sg10
Nsbag3
(g13
g5
NtRp23
(dp24
g16
(lp25
g18
acdoboz_web.idoboz_web
IDriver
p26
asg20
g6
sg21
S'ArduinoExampleDriver'
p27
sg10
S'Class defining the components of the driver for a basic arduino,using attached firmware '
p28
sbag3
(g13
g5
NtRp29
(dp30
g16
(lp31
g18
ag19
asg20
g6
sg21
S'SerialHardwareHandler'
p32
sg10
NsbasbsS'example_arduino_driver'
p33
g3
(g4
g5
NtRp34
(dp35
g8
S'arduinoExample.example_arduino_driver'
p36
sg10
Nsg11
(lp37
g3
(g13
g5
NtRp38
(dp39
g16
(lp40
g18
ag19
asg20
g34
sg21
g22
sg10
Nsbag3
(g13
g5
NtRp41
(dp42
g16
(lp43
g18
ag26
asg20
g34
sg21
g27
sg10
S'Class defining the components of the driver for a basic arduino,using attached firmware '
p44
sbag3
(g13
g5
NtRp45
(dp46
g16
(lp47
g18
ag19
asg20
g34
sg21
g32
sg10
Nsbasbs.