(dp1
S'virtual_device_driver'
p2
ccopy_reg
_reconstructor
p3
(ctwisted.plugin
CachedDropin
p4
c__builtin__
object
p5
NtRp6
(dp7
S'moduleName'
p8
S'virtualDevice.virtual_device_driver'
p9
sS'description'
p10
NsS'plugins'
p11
(lp12
g3
(ctwisted.plugin
CachedPlugin
p13
g5
NtRp14
(dp15
S'provided'
p16
(lp17
ctwisted.plugin
IPlugin
p18
actwisted.internet.interfaces
IProtocol
p19
asS'dropin'
p20
g6
sS'name'
p21
S'VirtualDeviceProtocol'
p22
sg10
Nsbag3
(g13
g5
NtRp23
(dp24
g16
(lp25
g18
acdoboz_web.idoboz_web
IDriverHardwareHandler
p26
asg20
g6
sg21
S'VirtualDeviceHardwareHandler'
p27
sg10
Nsbag3
(g13
g5
NtRp28
(dp29
g16
(lp30
g18
ag19
asg20
g6
sg21
S'BaseProtocol'
p31
sg10
Nsbag3
(g13
g5
NtRp32
(dp33
g16
(lp34
g18
acdoboz_web.idoboz_web
IDriver
p35
asg20
g6
sg21
S'VirtualDeviceDriver'
p36
sg10
S'Class defining the components of the driver for a basic arduino,using attached firmware '
p37
sbasbs.