(dp1
S'fived_driver'
p2
ccopy_reg
_reconstructor
p3
(ctwisted.plugin
CachedDropin
p4
c__builtin__
object
p5
NtRp6
(dp7
S'moduleName'
p8
S'reprap.drivers.FiveD.fived_driver'
p9
sS'description'
p10
NsS'plugins'
p11
(lp12
g3
(ctwisted.plugin
CachedPlugin
p13
g5
NtRp14
(dp15
S'provided'
p16
(lp17
ctwisted.plugin
IPlugin
p18
acdoboz_web.idoboz_web
IDriverHardwareHandler
p19
asS'dropin'
p20
g6
sS'name'
p21
S'SerialHardwareHandler'
p22
sg10
Nsbag3
(g13
g5
NtRp23
(dp24
g16
(lp25
g18
ag19
asg20
g6
sg21
S'FiveDHardwareHandler'
p26
sg10
Nsbag3
(g13
g5
NtRp27
(dp28
g16
(lp29
g18
acdoboz_web.idoboz_web
IDriver
p30
asg20
g6
sg21
S'FiveDDriver'
p31
sg10
S'Class defining the components of the driver for the 5D reprap firmware '
p32
sbasbs.